target datalayout = "e-m:e-p270:32:32-p271:32:32-p272:64:64-i64:64-i128:128-f80:128-n8:16:32:64-S128"
target triple = "x86_64-pc-linux-gnu"

%class.ReservedSpace = type <{ ptr, i64, i64, i64, i64, i8, [3 x i8], i32, i8, [7 x i8] }>
%class.DumpRegion = type { ptr, ptr, ptr, ptr, i64, i8, ptr, ptr }

@g_assert_poison = external global ptr, align 8
@.str = private unnamed_addr constant [39 x i8] c"src/hotspot/share/cds/archiveUtils.cpp\00", align 1
@.str.12 = private unnamed_addr constant [43 x i8] c"Unable to allocate memory for shared space\00", align 1

; Function Attrs: mustprogress nounwind uwtable
define linkonce_odr hidden noundef ptr @_ZNK13ReservedSpace3endEv(ptr noundef nonnull align 8 dereferenceable(49) %0) #1 comdat align 2 {
  %2 = alloca ptr, align 8
  store ptr %0, ptr %2, align 8
  %3 = load ptr, ptr %2, align 8
  %4 = getelementptr inbounds %class.ReservedSpace, ptr %3, i32 0, i32 0
  %5 = load ptr, ptr %4, align 8
  %6 = getelementptr inbounds %class.ReservedSpace, ptr %3, i32 0, i32 1
  %7 = load i64, ptr %6, align 8
  %8 = getelementptr inbounds i8, ptr %5, i64 %7
  ret ptr %8
}

; Function Attrs: mustprogress nounwind uwtable
define linkonce_odr hidden noundef ptr @_ZNK13ReservedSpace4baseEv(ptr noundef nonnull align 8 dereferenceable(49) %0) #1 comdat align 2 {
  %2 = alloca ptr, align 8
  store ptr %0, ptr %2, align 8
  %3 = load ptr, ptr %2, align 8
  %4 = getelementptr inbounds %class.ReservedSpace, ptr %3, i32 0, i32 0
  %5 = load ptr, ptr %4, align 8
  ret ptr %5
}

; Function Attrs: mustprogress nounwind uwtable
define hidden void @_ZN10DumpRegion4initEP13ReservedSpaceP12VirtualSpace(ptr noundef nonnull align 8 dereferenceable(64) %0, ptr noundef %1, ptr noundef %2) #1 align 2 {
  %4 = alloca ptr, align 8
  %5 = alloca ptr, align 8
  %6 = alloca ptr, align 8
  %7 = alloca %class.ReservedSpace, align 8
  store ptr %0, ptr %4, align 8
  store ptr %1, ptr %5, align 8
  store ptr %2, ptr %6, align 8
  %8 = load ptr, ptr %4, align 8
  %9 = load ptr, ptr %5, align 8
  %10 = getelementptr inbounds %class.DumpRegion, ptr %8, i32 0, i32 6
  store ptr %9, ptr %10, align 8
  %11 = load ptr, ptr %6, align 8
  %12 = getelementptr inbounds %class.DumpRegion, ptr %8, i32 0, i32 7
  store ptr %11, ptr %12, align 8
  %13 = getelementptr inbounds %class.DumpRegion, ptr %8, i32 0, i32 7
  %14 = load ptr, ptr %13, align 8
  %15 = getelementptr inbounds %class.DumpRegion, ptr %8, i32 0, i32 6
  %16 = load ptr, ptr %15, align 8
  call void @llvm.memcpy.p0.p0.i64(ptr align 8 %7, ptr align 8 %16, i64 56, i1 false)
  %17 = call noundef zeroext i1 @_ZN12VirtualSpace10initializeE13ReservedSpacem(ptr noundef nonnull align 8 dereferenceable(112) %14, ptr noundef byval(%class.ReservedSpace) align 8 %7, i64 noundef 0)
  br i1 %17, label %22, label %18

18:                                               ; preds = %3
  br label %19

19:                                               ; preds = %18
  %20 = load ptr, ptr @g_assert_poison, align 8
  store i8 88, ptr %20, align 1
  call void (i32, ptr, i32, ptr, ...) @_Z12report_fatal11VMErrorTypePKciS1_z(i32 noundef -536870912, ptr noundef @.str, i32 noundef 283, ptr noundef @.str.12) #11
  unreachable

21:                                               ; No predecessors!
  br label %22

22:                                               ; preds = %21, %3
  %23 = getelementptr inbounds %class.DumpRegion, ptr %8, i32 0, i32 6
  %24 = load ptr, ptr %23, align 8
  %25 = call noundef ptr @_ZNK13ReservedSpace4baseEv(ptr noundef nonnull align 8 dereferenceable(49) %24)
  %26 = getelementptr inbounds %class.DumpRegion, ptr %8, i32 0, i32 2
  store ptr %25, ptr %26, align 8
  %27 = getelementptr inbounds %class.DumpRegion, ptr %8, i32 0, i32 1
  store ptr %25, ptr %27, align 8
  %28 = getelementptr inbounds %class.DumpRegion, ptr %8, i32 0, i32 6
  %29 = load ptr, ptr %28, align 8
  %30 = call noundef ptr @_ZNK13ReservedSpace3endEv(ptr noundef nonnull align 8 dereferenceable(49) %29)
  %31 = getelementptr inbounds %class.DumpRegion, ptr %8, i32 0, i32 3
  store ptr %30, ptr %31, align 8
  ret void
}