; Function Attrs: mustprogress nounwind uwtable
define hidden void @_ZN10DumpRegion4initEP13ReservedSpaceP12VirtualSpace(ptr nocapture noundef nonnull align 8 dereferenceable(64) %0, ptr noundef %1, ptr noundef nonnull %2) local_unnamed_addr #0 align 2 {
  %4 = getelementptr inbounds i8, ptr %0, i64 48
  store ptr %1, ptr %4, align 8
  %5 = getelementptr inbounds i8, ptr %0, i64 56
  store ptr %2, ptr %5, align 8
  %6 = tail call noundef zeroext i1 @_ZN12VirtualSpace10initializeE13ReservedSpacem(ptr noundef nonnull align 8 dereferenceable(112) %2, ptr noundef nonnull byval(%class.ReservedSpace) align 8 %1, i64 noundef 0) #10
  br i1 %6, label %9, label %7

7:                                                ; preds = %3
  %8 = load ptr, ptr @g_assert_poison, align 8
  store i8 88, ptr %8, align 1
  tail call void (i32, ptr, i32, ptr, ...) @_Z12report_fatal11VMErrorTypePKciS1_z(i32 noundef -536870912, ptr noundef nonnull @.str, i32 noundef 283, ptr noundef nonnull @.str.12) #11
  unreachable

9:                                                ; preds = %3
  %10 = load ptr, ptr %4, align 8
  %11 = load ptr, ptr %10, align 8
  %12 = getelementptr inbounds i8, ptr %0, i64 16
  store ptr %11, ptr %12, align 8
  %13 = getelementptr inbounds i8, ptr %0, i64 8
  store ptr %11, ptr %13, align 8
  %14 = load ptr, ptr %10, align 8
  %15 = getelementptr inbounds i8, ptr %10, i64 8
  %16 = load i64, ptr %15, align 8
  %17 = getelementptr inbounds i8, ptr %14, i64 %16
  %18 = getelementptr inbounds i8, ptr %0, i64 24
  store ptr %17, ptr %18, align 8
  ret void
}